target datalayout = "e-m:e-p270:32:32-p271:32:32-p272:64:64-i64:64-i128:128-f80:128-n8:16:32:64-S128"
target triple = "x86_64-pc-linux-gnu"

%struct.AVFormatContext = type { ptr, ptr, ptr, ptr, ptr, i32, i32, ptr, i32, ptr, i32, ptr, ptr, i64, i64, i64, i32, i32, i32, i64, i64, ptr, i32, i32, ptr, i32, i32, i32, i32, ptr, i64, i32, i32, %struct.AVIOInterruptCB, i32, i32, i32, i32, i64, i32, i32, i32, i32, i32, i32, i32, i32, i32, i32, i32, i32, i64, i32, i32, i32, i32, i32, ptr, ptr, ptr, ptr, i32, ptr, ptr, ptr, ptr, i32, ptr, ptr, i64, ptr, ptr, ptr, i64 }
%struct.AVIOInterruptCB = type { ptr, ptr }
%struct.FFFormatContext = type { %struct.AVFormatContext, i32, %struct.PacketList, i64, ptr, ptr, i32, ptr, i32 }
%struct.PacketList = type { ptr, ptr }

; Function Attrs: alwaysinline nounwind uwtable
define internal ptr @ffformatcontext(ptr noundef %0) #5 {
  %2 = alloca ptr, align 8
  store ptr %0, ptr %2, align 8, !tbaa !13
  %3 = load ptr, ptr %2, align 8, !tbaa !13
  ret ptr %3
}

; Function Attrs: nounwind uwtable
define internal i32 @yuv4_read_seek(ptr noundef %0, i32 noundef %1, i64 noundef %2, i32 noundef %3) #0 {
  %5 = alloca i32, align 4
  %6 = alloca ptr, align 8
  %7 = alloca i32, align 4
  %8 = alloca i64, align 8
  %9 = alloca i32, align 4
  %10 = alloca i64, align 8
  %11 = alloca i32, align 4
  store ptr %0, ptr %6, align 8, !tbaa !13
  store i32 %1, ptr %7, align 4, !tbaa !31
  store i64 %2, ptr %8, align 8, !tbaa !43
  store i32 %3, ptr %9, align 4, !tbaa !31
  call void @llvm.lifetime.start.p0(i64 8, ptr %10) #8
  %12 = load i32, ptr %9, align 4, !tbaa !31
  %13 = and i32 %12, 1
  %14 = icmp ne i32 %13, 0
  br i1 %14, label %15, label %25

15:                                               ; preds = %4
  %16 = load i64, ptr %8, align 8, !tbaa !43
  %17 = sub nsw i64 %16, 1
  %18 = icmp sgt i64 0, %17
  br i1 %18, label %19, label %20

19:                                               ; preds = %15
  br label %23

20:                                               ; preds = %15
  %21 = load i64, ptr %8, align 8, !tbaa !43
  %22 = sub nsw i64 %21, 1
  br label %23

23:                                               ; preds = %20, %19
  %24 = phi i64 [ 0, %19 ], [ %22, %20 ]
  store i64 %24, ptr %8, align 8, !tbaa !43
  br label %25

25:                                               ; preds = %23, %4
  %26 = load i64, ptr %8, align 8, !tbaa !43
  %27 = icmp slt i64 %26, 0
  br i1 %27, label %28, label %29

28:                                               ; preds = %25
  store i32 -1, ptr %5, align 4
  store i32 1, ptr %11, align 4
  br label %49

29:                                               ; preds = %25
  %30 = load i64, ptr %8, align 8, !tbaa !43
  %31 = load ptr, ptr %6, align 8, !tbaa !13
  %32 = getelementptr inbounds nuw %struct.AVFormatContext, ptr %31, i32 0, i32 16
  %33 = load i32, ptr %32, align 8, !tbaa !71
  %34 = zext i32 %33 to i64
  %35 = mul nsw i64 %30, %34
  store i64 %35, ptr %10, align 8, !tbaa !43
  %36 = load ptr, ptr %6, align 8, !tbaa !13
  %37 = getelementptr inbounds nuw %struct.AVFormatContext, ptr %36, i32 0, i32 4
  %38 = load ptr, ptr %37, align 8, !tbaa !15
  %39 = load i64, ptr %10, align 8, !tbaa !43
  %40 = load ptr, ptr %6, align 8, !tbaa !13
  %41 = call ptr @ffformatcontext(ptr noundef %40)
  %42 = getelementptr inbounds nuw %struct.FFFormatContext, ptr %41, i32 0, i32 3
  %43 = load i64, ptr %42, align 8, !tbaa !72
  %44 = add nsw i64 %39, %43
  %45 = call i64 @avio_seek(ptr noundef %38, i64 noundef %44, i32 noundef 0)
  %46 = icmp slt i64 %45, 0
  br i1 %46, label %47, label %48

47:                                               ; preds = %29
  store i32 -1, ptr %5, align 4
  store i32 1, ptr %11, align 4
  br label %49

48:                                               ; preds = %29
  store i32 0, ptr %5, align 4
  store i32 1, ptr %11, align 4
  br label %49

49:                                               ; preds = %48, %47, %28
  call void @llvm.lifetime.end.p0(i64 8, ptr %10) #8
  %50 = load i32, ptr %5, align 4
  ret i32 %50
}