; Function Attrs: nounwind uwtable
define internal range(i32 -1, 1) i32 @yuv4_read_seek(ptr noundef readonly captures(none) %0, i32 %1, i64 noundef %2, i32 noundef %3) #1 {
  %5 = and i32 %3, 1
  %.not = icmp eq i32 %5, 0
  %6 = tail call i64 @llvm.smax.i64(i64 %2, i64 1)
  %7 = add nsw i64 %6, -1
  %.09 = select i1 %.not, i64 %2, i64 %7
  %8 = icmp slt i64 %.09, 0
  br i1 %8, label %20, label %9

9:                                                ; preds = %4
  %10 = getelementptr inbounds nuw i8, ptr %0, i64 120
  %11 = load i32, ptr %10, align 8, !tbaa !60
  %12 = zext i32 %11 to i64
  %13 = mul nuw nsw i64 %.09, %12
  %14 = getelementptr inbounds nuw i8, ptr %0, i64 32
  %15 = load ptr, ptr %14, align 8, !tbaa !11
  %16 = getelementptr inbounds nuw i8, ptr %0, i64 496
  %17 = load i64, ptr %16, align 8, !tbaa !61
  %18 = add nsw i64 %13, %17
  %19 = tail call i64 @avio_seek(ptr noundef %15, i64 noundef %18, i32 noundef 0) #10
  %.lobit = ashr i64 %19, 63
  %. = trunc nsw i64 %.lobit to i32
  br label %20

20:                                               ; preds = %9, %4
  %.0 = phi i32 [ -1, %4 ], [ %., %9 ]
  ret i32 %.0
}